target datalayout = "e-m:e-p270:32:32-p271:32:32-p272:64:64-i64:64-i128:128-f80:128-n8:16:32:64-S128"
target triple = "x86_64-pc-linux-gnu"

%struct.PJconsts = type { ptr, ptr, ptr, ptr, ptr, ptr, ptr, ptr, ptr, ptr, ptr, ptr, i32, ptr, ptr, ptr, ptr, ptr, ptr, ptr, ptr, double, double, double, double, double, double, double, double, double, double, double, double, double, double, double, double, double, double, double, double, double, double, i32, i32, i32, i32, i32, i32, i32, i32, i32, i32, i32, ptr, ptr, ptr, ptr, ptr, ptr, double, double, double, double, double, double, double, double, double, double, double, i32, [7 x double], i32, ptr, ptr, double, double, i32, [4 x i8], %"class.std::shared_ptr", i8, double, i8, %"class.std::__cxx11::basic_string", %"class.std::__cxx11::basic_string", %"class.std::__cxx11::basic_string", i8, %"class.std::vector", i32, %"class.std::vector.3", i32, i8, i8, i8, ptr }
%"class.std::shared_ptr" = type { %"class.std::__shared_ptr" }
%"class.std::__shared_ptr" = type { ptr, %"class.std::__shared_count" }
%"class.std::__shared_count" = type { ptr }
%"class.std::__cxx11::basic_string" = type { %"struct.std::__cxx11::basic_string<char>::_Alloc_hider", i64, %union.anon }
%"struct.std::__cxx11::basic_string<char>::_Alloc_hider" = type { ptr }
%union.anon = type { i64, [8 x i8] }
%"class.std::vector" = type { %"struct.std::_Vector_base" }
%"struct.std::_Vector_base" = type { %"struct.std::_Vector_base<osgeo::proj::operation::GridDescription, std::allocator<osgeo::proj::operation::GridDescription>>::_Vector_impl" }
%"struct.std::_Vector_base<osgeo::proj::operation::GridDescription, std::allocator<osgeo::proj::operation::GridDescription>>::_Vector_impl" = type { %"struct.std::_Vector_base<osgeo::proj::operation::GridDescription, std::allocator<osgeo::proj::operation::GridDescription>>::_Vector_impl_data" }
%"struct.std::_Vector_base<osgeo::proj::operation::GridDescription, std::allocator<osgeo::proj::operation::GridDescription>>::_Vector_impl_data" = type { ptr, ptr, ptr }
%"class.std::vector.3" = type { %"struct.std::_Vector_base.4" }
%"struct.std::_Vector_base.4" = type { %"struct.std::_Vector_base<PJCoordOperation, std::allocator<PJCoordOperation>>::_Vector_impl" }
%"struct.std::_Vector_base<PJCoordOperation, std::allocator<PJCoordOperation>>::_Vector_impl" = type { %"struct.std::_Vector_base<PJCoordOperation, std::allocator<PJCoordOperation>>::_Vector_impl_data" }
%"struct.std::_Vector_base<PJCoordOperation, std::allocator<PJCoordOperation>>::_Vector_impl_data" = type { ptr, ptr, ptr }
%"struct.(anonymous namespace)::pj_geos_data" = type { double, double, double, double, double, double, double, i32 }
%struct.PJ_LP = type { double, double }
%struct.PJ_XY = type { double, double }

; Function Attrs: mustprogress nounwind uwtable
define internal { double, double } @_ZL14geos_s_forward5PJ_LPP8PJconsts(double %0, double %1, ptr noundef %2) #6 {
  %4 = alloca %struct.PJ_XY, align 8
  %5 = alloca %struct.PJ_LP, align 8
  %6 = alloca ptr, align 8
  %7 = alloca ptr, align 8
  %8 = alloca double, align 8
  %9 = alloca double, align 8
  %10 = alloca double, align 8
  %11 = alloca double, align 8
  %12 = getelementptr inbounds nuw { double, double }, ptr %5, i32 0, i32 0
  store double %0, ptr %12, align 8
  %13 = getelementptr inbounds nuw { double, double }, ptr %5, i32 0, i32 1
  store double %1, ptr %13, align 8
  store ptr %2, ptr %6, align 8, !tbaa !3
  call void @llvm.memset.p0.i64(ptr align 8 %4, i8 0, i64 16, i1 false)
  call void @llvm.lifetime.start.p0(i64 8, ptr %7) #8
  %14 = load ptr, ptr %6, align 8, !tbaa !3
  %15 = getelementptr inbounds nuw %struct.PJconsts, ptr %14, i32 0, i32 11
  %16 = load ptr, ptr %15, align 8, !tbaa !43
  store ptr %16, ptr %7, align 8, !tbaa !41
  call void @llvm.lifetime.start.p0(i64 8, ptr %8) #8
  call void @llvm.lifetime.start.p0(i64 8, ptr %9) #8
  call void @llvm.lifetime.start.p0(i64 8, ptr %10) #8
  call void @llvm.lifetime.start.p0(i64 8, ptr %11) #8
  %17 = getelementptr inbounds nuw %struct.PJ_LP, ptr %5, i32 0, i32 1
  %18 = load double, ptr %17, align 8, !tbaa !70
  %19 = call double @cos(double noundef %18) #8, !tbaa !57
  store double %19, ptr %11, align 8, !tbaa !64
  %20 = getelementptr inbounds nuw %struct.PJ_LP, ptr %5, i32 0, i32 0
  %21 = load double, ptr %20, align 8, !tbaa !68
  %22 = call double @cos(double noundef %21) #8, !tbaa !57
  %23 = load double, ptr %11, align 8, !tbaa !64
  %24 = fmul double %22, %23
  store double %24, ptr %8, align 8, !tbaa !64
  %25 = getelementptr inbounds nuw %struct.PJ_LP, ptr %5, i32 0, i32 0
  %26 = load double, ptr %25, align 8, !tbaa !68
  %27 = call double @sin(double noundef %26) #8, !tbaa !57
  %28 = load double, ptr %11, align 8, !tbaa !64
  %29 = fmul double %27, %28
  store double %29, ptr %9, align 8, !tbaa !64
  %30 = getelementptr inbounds nuw %struct.PJ_LP, ptr %5, i32 0, i32 1
  %31 = load double, ptr %30, align 8, !tbaa !70
  %32 = call double @sin(double noundef %31) #8, !tbaa !57
  store double %32, ptr %10, align 8, !tbaa !64
  %33 = load ptr, ptr %7, align 8, !tbaa !41
  %34 = getelementptr inbounds nuw %"struct.(anonymous namespace)::pj_geos_data", ptr %33, i32 0, i32 4
  %35 = load double, ptr %34, align 8, !tbaa !53
  %36 = load double, ptr %8, align 8, !tbaa !64
  %37 = fsub double %35, %36
  store double %37, ptr %11, align 8, !tbaa !64
  %38 = load ptr, ptr %7, align 8, !tbaa !41
  %39 = getelementptr inbounds nuw %"struct.(anonymous namespace)::pj_geos_data", ptr %38, i32 0, i32 7
  %40 = load i32, ptr %39, align 8, !tbaa !50
  %41 = icmp ne i32 %40, 0
  br i1 %41, label %42, label %63

42:                                               ; preds = %3
  %43 = load ptr, ptr %7, align 8, !tbaa !41
  %44 = getelementptr inbounds nuw %"struct.(anonymous namespace)::pj_geos_data", ptr %43, i32 0, i32 5
  %45 = load double, ptr %44, align 8, !tbaa !52
  %46 = load double, ptr %9, align 8, !tbaa !64
  %47 = load double, ptr %10, align 8, !tbaa !64
  %48 = load double, ptr %11, align 8, !tbaa !64
  %49 = call double @hypot(double noundef %47, double noundef %48) #8, !tbaa !57
  %50 = fdiv double %46, %49
  %51 = call double @atan(double noundef %50) #8, !tbaa !57
  %52 = fmul double %45, %51
  %53 = getelementptr inbounds nuw %struct.PJ_XY, ptr %4, i32 0, i32 0
  store double %52, ptr %53, align 8, !tbaa !67
  %54 = load ptr, ptr %7, align 8, !tbaa !41
  %55 = getelementptr inbounds nuw %"struct.(anonymous namespace)::pj_geos_data", ptr %54, i32 0, i32 5
  %56 = load double, ptr %55, align 8, !tbaa !52
  %57 = load double, ptr %10, align 8, !tbaa !64
  %58 = load double, ptr %11, align 8, !tbaa !64
  %59 = fdiv double %57, %58
  %60 = call double @atan(double noundef %59) #8, !tbaa !57
  %61 = fmul double %56, %60
  %62 = getelementptr inbounds nuw %struct.PJ_XY, ptr %4, i32 0, i32 1
  store double %61, ptr %62, align 8, !tbaa !65
  br label %84

63:                                               ; preds = %3
  %64 = load ptr, ptr %7, align 8, !tbaa !41
  %65 = getelementptr inbounds nuw %"struct.(anonymous namespace)::pj_geos_data", ptr %64, i32 0, i32 5
  %66 = load double, ptr %65, align 8, !tbaa !52
  %67 = load double, ptr %9, align 8, !tbaa !64
  %68 = load double, ptr %11, align 8, !tbaa !64
  %69 = fdiv double %67, %68
  %70 = call double @atan(double noundef %69) #8, !tbaa !57
  %71 = fmul double %66, %70
  %72 = getelementptr inbounds nuw %struct.PJ_XY, ptr %4, i32 0, i32 0
  store double %71, ptr %72, align 8, !tbaa !67
  %73 = load ptr, ptr %7, align 8, !tbaa !41
  %74 = getelementptr inbounds nuw %"struct.(anonymous namespace)::pj_geos_data", ptr %73, i32 0, i32 5
  %75 = load double, ptr %74, align 8, !tbaa !52
  %76 = load double, ptr %10, align 8, !tbaa !64
  %77 = load double, ptr %9, align 8, !tbaa !64
  %78 = load double, ptr %11, align 8, !tbaa !64
  %79 = call double @hypot(double noundef %77, double noundef %78) #8, !tbaa !57
  %80 = fdiv double %76, %79
  %81 = call double @atan(double noundef %80) #8, !tbaa !57
  %82 = fmul double %75, %81
  %83 = getelementptr inbounds nuw %struct.PJ_XY, ptr %4, i32 0, i32 1
  store double %82, ptr %83, align 8, !tbaa !65
  br label %84

84:                                               ; preds = %63, %42
  call void @llvm.lifetime.end.p0(i64 8, ptr %11) #8
  call void @llvm.lifetime.end.p0(i64 8, ptr %10) #8
  call void @llvm.lifetime.end.p0(i64 8, ptr %9) #8
  call void @llvm.lifetime.end.p0(i64 8, ptr %8) #8
  call void @llvm.lifetime.end.p0(i64 8, ptr %7) #8
  %85 = load { double, double }, ptr %4, align 8
  ret { double, double } %85
}