; Function Attrs: mustprogress nofree nounwind willreturn memory(readwrite, inaccessiblemem: write) uwtable
define internal { double, double } @_ZL14geos_s_forward5PJ_LPP8PJconsts(double %0, double %1, ptr noundef readonly captures(none) %2) #5 {
  %4 = getelementptr inbounds nuw i8, ptr %2, i64 88
  %5 = load ptr, ptr %4, align 8, !tbaa !40
  %6 = tail call double @cos(double noundef %1) #8, !tbaa !53
  %7 = tail call double @cos(double noundef %0) #8, !tbaa !53
  %8 = fmul double %6, %7
  %9 = tail call double @sin(double noundef %0) #8, !tbaa !53
  %10 = fmul double %6, %9
  %11 = tail call double @sin(double noundef %1) #8, !tbaa !53
  %12 = getelementptr inbounds nuw i8, ptr %5, i64 32
  %13 = load double, ptr %12, align 8, !tbaa !49
  %14 = fsub double %13, %8
  %15 = getelementptr inbounds nuw i8, ptr %5, i64 56
  %16 = load i32, ptr %15, align 8, !tbaa !45
  %.not = icmp eq i32 %16, 0
  %17 = getelementptr inbounds nuw i8, ptr %5, i64 40
  %18 = load double, ptr %17, align 8, !tbaa !48
  br i1 %.not, label %23, label %19

19:                                               ; preds = %3
  %20 = tail call double @hypot(double noundef %11, double noundef %14) #8, !tbaa !53
  %21 = fdiv double %10, %20
  %22 = tail call double @atan(double noundef %21) #8, !tbaa !53
  br label %27

23:                                               ; preds = %3
  %24 = fdiv double %10, %14
  %25 = tail call double @atan(double noundef %24) #8, !tbaa !53
  %26 = tail call double @hypot(double noundef %10, double noundef %14) #8, !tbaa !53
  br label %27

27:                                               ; preds = %23, %19
  %.sink = phi double [ %26, %23 ], [ %14, %19 ]
  %.pn = phi double [ %25, %23 ], [ %22, %19 ]
  %.sroa.022.0 = fmul double %18, %.pn
  %28 = fdiv double %11, %.sink
  %29 = tail call double @atan(double noundef %28) #8, !tbaa !53
  %30 = fmul double %18, %29
  %.fca.0.insert = insertvalue { double, double } poison, double %.sroa.022.0, 0
  %.fca.1.insert = insertvalue { double, double } %.fca.0.insert, double %30, 1
  ret { double, double } %.fca.1.insert
}